; Function Attrs: mustprogress uwtable
define void @_ZN8Paintbox15setPixmapOffsetEdd(ptr nocapture noundef nonnull readonly align 8 dereferenceable(844) %0, double noundef %1, double noundef %2) local_unnamed_addr #0 align 2 {
  %4 = alloca %class.QPointF, align 8
  %5 = alloca %class.QPointF, align 16
  %6 = getelementptr inbounds i8, ptr %0, i64 824
  %7 = load ptr, ptr %6, align 8
  %8 = getelementptr inbounds i8, ptr %0, i64 836
  call void @llvm.lifetime.start.p0(i64 16, ptr nonnull %5)
  %9 = load <2 x i32>, ptr %8, align 4
  %10 = sub nsw <2 x i32> zeroinitializer, %9
  %11 = sitofp <2 x i32> %10 to <2 x double>
  %12 = insertelement <2 x double> poison, double %1, i64 0
  %13 = insertelement <2 x double> %12, double %2, i64 1
  %14 = fsub <2 x double> %11, %13
  store <2 x double> %14, ptr %5, align 16
  call void @_ZN13QGraphicsItem6setPosERK7QPointF(ptr noundef nonnull align 8 dereferenceable(16) %7, ptr noundef nonnull align 8 dereferenceable(16) %5)
  call void @llvm.lifetime.end.p0(i64 16, ptr nonnull %5)
  %15 = getelementptr inbounds i8, ptr %0, i64 280
  %16 = load ptr, ptr %15, align 8
  call void @llvm.lifetime.start.p0(i64 16, ptr nonnull %4)
  call void @llvm.memset.p0.i64(ptr noundef nonnull align 8 dereferenceable(16) %4, i8 0, i64 16, i1 false)
  call void @_ZN13QGraphicsView8centerOnERK7QPointF(ptr noundef nonnull align 8 dereferenceable(48) %16, ptr noundef nonnull align 8 dereferenceable(16) %4)
  call void @llvm.lifetime.end.p0(i64 16, ptr nonnull %4)
  ret void
}